target datalayout = "e-m:e-p270:32:32-p271:32:32-p272:64:64-i64:64-i128:128-f80:128-n8:16:32:64-S128"
target triple = "x86_64-pc-linux-gnu"

%struct.ident_t = type { i32, i32, i32, i32, ptr }
%"class.std::vector.20" = type { %"struct.std::_Vector_base.21" }
%"struct.std::_Vector_base.21" = type { %"struct.std::_Vector_base<unsigned short, LightGBM::Common::AlignmentAllocator<unsigned short>>::_Vector_impl" }
%"struct.std::_Vector_base<unsigned short, LightGBM::Common::AlignmentAllocator<unsigned short>>::_Vector_impl" = type { %"struct.std::_Vector_base<unsigned short, LightGBM::Common::AlignmentAllocator<unsigned short>>::_Vector_impl_data" }
%"struct.std::_Vector_base<unsigned short, LightGBM::Common::AlignmentAllocator<unsigned short>>::_Vector_impl_data" = type { ptr, ptr, ptr }
%"class.LightGBM::MultiValBin" = type { ptr }
%"class.std::vector.121" = type { %"struct.std::_Vector_base.122" }
%"struct.std::_Vector_base.122" = type { %"struct.std::_Vector_base<unsigned int, std::allocator<unsigned int>>::_Vector_impl" }
%"struct.std::_Vector_base<unsigned int, std::allocator<unsigned int>>::_Vector_impl" = type { %"struct.std::_Vector_base<unsigned int, std::allocator<unsigned int>>::_Vector_impl_data" }
%"struct.std::_Vector_base<unsigned int, std::allocator<unsigned int>>::_Vector_impl_data" = type { ptr, ptr, ptr }
%"struct.std::_Vector_base.5" = type { %"struct.std::_Vector_base<int, std::allocator<int>>::_Vector_impl" }
%"struct.std::_Vector_base<int, std::allocator<int>>::_Vector_impl" = type { %"struct.std::_Vector_base<int, std::allocator<int>>::_Vector_impl_data" }
%"struct.std::_Vector_base<int, std::allocator<int>>::_Vector_impl_data" = type { ptr, ptr, ptr }
%"class.LightGBM::MultiValDenseBin.129" = type { %"class.LightGBM::MultiValBin", i32, i32, i32, %"class.std::vector.121", %"class.std::vector.20" }

@1 = private unnamed_addr constant %struct.ident_t { i32 0, i32 514, i32 0, i32 22, ptr @0 }, align 8

; Function Attrs: mustprogress nounwind uwtable
define linkonce_odr noundef nonnull align 2 dereferenceable(2) ptr @_ZNSt6vectorItN8LightGBM6Common18AlignmentAllocatorItLm32EEEEixEm(ptr noundef nonnull align 8 dereferenceable(24) %0, i64 noundef %1) #0 comdat align 2 {
  %3 = alloca ptr, align 8
  %4 = alloca i64, align 8
  store ptr %0, ptr %3, align 8, !tbaa !416
  store i64 %1, ptr %4, align 8, !tbaa !37
  %5 = load ptr, ptr %3, align 8
  %6 = getelementptr inbounds nuw %"struct.std::_Vector_base.21", ptr %5, i32 0, i32 0
  %7 = getelementptr inbounds nuw %"struct.std::_Vector_base<unsigned short, LightGBM::Common::AlignmentAllocator<unsigned short>>::_Vector_impl_data", ptr %6, i32 0, i32 0
  %8 = load ptr, ptr %7, align 8, !tbaa !418
  %9 = load i64, ptr %4, align 8, !tbaa !37
  %10 = getelementptr inbounds nuw i16, ptr %8, i64 %9
  ret ptr %10
}

; Function Attrs: mustprogress nounwind uwtable
define linkonce_odr noundef nonnull align 2 dereferenceable(2) ptr @_ZNKSt6vectorItN8LightGBM6Common18AlignmentAllocatorItLm32EEEEixEm(ptr noundef nonnull align 8 dereferenceable(24) %0, i64 noundef %1) #0 comdat align 2 {
  %3 = alloca ptr, align 8
  %4 = alloca i64, align 8
  store ptr %0, ptr %3, align 8, !tbaa !416
  store i64 %1, ptr %4, align 8, !tbaa !37
  %5 = load ptr, ptr %3, align 8
  %6 = getelementptr inbounds nuw %"struct.std::_Vector_base.21", ptr %5, i32 0, i32 0
  %7 = getelementptr inbounds nuw %"struct.std::_Vector_base<unsigned short, LightGBM::Common::AlignmentAllocator<unsigned short>>::_Vector_impl_data", ptr %6, i32 0, i32 0
  %8 = load ptr, ptr %7, align 8, !tbaa !418
  %9 = load i64, ptr %4, align 8, !tbaa !37
  %10 = getelementptr inbounds nuw i16, ptr %8, i64 %9
  ret ptr %10
}

; Function Attrs: mustprogress nounwind uwtable
define linkonce_odr noundef nonnull align 4 dereferenceable(4) ptr @_ZNKSt6vectorIiSaIiEEixEm(ptr noundef nonnull align 8 dereferenceable(24) %0, i64 noundef %1) #0 comdat align 2 {
  %3 = alloca ptr, align 8
  %4 = alloca i64, align 8
  store ptr %0, ptr %3, align 8, !tbaa !21
  store i64 %1, ptr %4, align 8, !tbaa !37
  %5 = load ptr, ptr %3, align 8
  %6 = getelementptr inbounds nuw %"struct.std::_Vector_base.5", ptr %5, i32 0, i32 0
  %7 = getelementptr inbounds nuw %"struct.std::_Vector_base<int, std::allocator<int>>::_Vector_impl_data", ptr %6, i32 0, i32 0
  %8 = load ptr, ptr %7, align 8, !tbaa !332
  %9 = load i64, ptr %4, align 8, !tbaa !37
  %10 = getelementptr inbounds nuw i32, ptr %8, i64 %9
  ret ptr %10
}

; Function Attrs: inlinehint mustprogress nounwind uwtable
define weak_odr noundef i64 @_ZNK8LightGBM16MultiValDenseBinItE6RowPtrEi(ptr noundef nonnull align 8 dereferenceable(72) %0, i32 noundef %1) #6 comdat align 2 {
  %3 = alloca ptr, align 8
  %4 = alloca i32, align 4
  store ptr %0, ptr %3, align 8, !tbaa !201
  store i32 %1, ptr %4, align 4, !tbaa !11
  %5 = load ptr, ptr %3, align 8
  %6 = load i32, ptr %4, align 4, !tbaa !11
  %7 = sext i32 %6 to i64
  %8 = getelementptr inbounds nuw %"class.LightGBM::MultiValDenseBin.129", ptr %5, i32 0, i32 3
  %9 = load i32, ptr %8, align 8, !tbaa !206
  %10 = sext i32 %9 to i64
  %11 = mul i64 %7, %10
  ret i64 %11
}

; Function Attrs: inlinehint mustprogress nounwind uwtable
define linkonce_odr noundef nonnull align 4 dereferenceable(4) ptr @_ZSt3minIiERKT_S2_S2_(ptr noundef nonnull align 4 dereferenceable(4) %0, ptr noundef nonnull align 4 dereferenceable(4) %1) #6 comdat {
  %3 = alloca ptr, align 8
  %4 = alloca ptr, align 8
  %5 = alloca ptr, align 8
  store ptr %0, ptr %4, align 8, !tbaa !14
  store ptr %1, ptr %5, align 8, !tbaa !14
  %6 = load ptr, ptr %5, align 8, !tbaa !14
  %7 = load i32, ptr %6, align 4, !tbaa !11
  %8 = load ptr, ptr %4, align 8, !tbaa !14
  %9 = load i32, ptr %8, align 4, !tbaa !11
  %10 = icmp slt i32 %7, %9
  br i1 %10, label %11, label %13

11:                                               ; preds = %2
  %12 = load ptr, ptr %5, align 8, !tbaa !14
  store ptr %12, ptr %3, align 8
  br label %15

13:                                               ; preds = %2
  %14 = load ptr, ptr %4, align 8, !tbaa !14
  store ptr %14, ptr %3, align 8
  br label %15

15:                                               ; preds = %13, %11
  %16 = load ptr, ptr %3, align 8
  ret ptr %16
}

; Function Attrs: alwaysinline norecurse nounwind uwtable
define internal void @_ZN8LightGBM16MultiValDenseBinItE9CopyInnerILb0ELb1EEEvPKNS_11MultiValBinEPKiiRKSt6vectorIiSaIiEE.omp_outlined(ptr noalias noundef %0, ptr noalias noundef %1, ptr noundef nonnull align 4 dereferenceable(4) %2, ptr noundef nonnull align 4 dereferenceable(4) %3, ptr noundef %4, ptr noundef nonnull align 8 dereferenceable(8) %5, ptr noundef nonnull align 8 dereferenceable(8) %6, ptr noundef nonnull align 8 dereferenceable(24) %7) #24 {
  %9 = alloca ptr, align 8
  %10 = alloca ptr, align 8
  %11 = alloca ptr, align 8
  %12 = alloca ptr, align 8
  %13 = alloca ptr, align 8
  %14 = alloca ptr, align 8
  %15 = alloca ptr, align 8
  %16 = alloca ptr, align 8
  %17 = alloca ptr, align 8
  %18 = alloca i32, align 4
  %19 = alloca i32, align 4
  %20 = alloca i32, align 4
  %21 = alloca i32, align 4
  %22 = alloca i32, align 4
  %23 = alloca i32, align 4
  %24 = alloca i32, align 4
  %25 = alloca i32, align 4
  %26 = alloca i32, align 4
  %27 = alloca i32, align 4
  %28 = alloca i32, align 4
  %29 = alloca i32, align 4
  %30 = alloca i32, align 4
  %31 = alloca i32, align 4
  %32 = alloca i64, align 8
  %33 = alloca i64, align 8
  %34 = alloca i32, align 4
  store ptr %0, ptr %9, align 8, !tbaa !14
  store ptr %1, ptr %10, align 8, !tbaa !14
  store ptr %2, ptr %11, align 8, !tbaa !14
  store ptr %3, ptr %12, align 8, !tbaa !14
  store ptr %4, ptr %13, align 8, !tbaa !201
  store ptr %5, ptr %14, align 8, !tbaa !1213
  store ptr %6, ptr %15, align 8, !tbaa !336
  store ptr %7, ptr %16, align 8, !tbaa !21
  %35 = load ptr, ptr %11, align 8, !tbaa !14
  %36 = load ptr, ptr %12, align 8, !tbaa !14
  %37 = load ptr, ptr %13, align 8, !tbaa !201
  %38 = load ptr, ptr %14, align 8, !tbaa !1213
  %39 = load ptr, ptr %16, align 8, !tbaa !21
  store ptr %39, ptr %17, align 8
  call void @llvm.lifetime.start.p0(i64 4, ptr %18) #5
  call void @llvm.lifetime.start.p0(i64 4, ptr %19) #5
  %40 = load i32, ptr %35, align 4, !tbaa !11
  store i32 %40, ptr %19, align 4, !tbaa !11
  call void @llvm.lifetime.start.p0(i64 4, ptr %20) #5
  %41 = load i32, ptr %19, align 4, !tbaa !11
  %42 = sub nsw i32 %41, 0
  %43 = sdiv i32 %42, 1
  %44 = sub nsw i32 %43, 1
  store i32 %44, ptr %20, align 4, !tbaa !11
  call void @llvm.lifetime.start.p0(i64 4, ptr %21) #5
  store i32 0, ptr %21, align 4, !tbaa !11
  call void @llvm.lifetime.end.p0(i64 4, ptr %21) #5
  %45 = load i32, ptr %19, align 4, !tbaa !11
  %46 = icmp slt i32 0, %45
  br i1 %46, label %47, label %168

47:                                               ; preds = %8
  call void @llvm.lifetime.start.p0(i64 4, ptr %22) #5
  store i32 0, ptr %22, align 4, !tbaa !11
  call void @llvm.lifetime.start.p0(i64 4, ptr %23) #5
  %48 = load i32, ptr %20, align 4, !tbaa !11
  store i32 %48, ptr %23, align 4, !tbaa !11
  call void @llvm.lifetime.start.p0(i64 4, ptr %24) #5
  store i32 1, ptr %24, align 4, !tbaa !11
  call void @llvm.lifetime.start.p0(i64 4, ptr %25) #5
  store i32 0, ptr %25, align 4, !tbaa !11
  call void @llvm.lifetime.start.p0(i64 4, ptr %26) #5
  %49 = load ptr, ptr %9, align 8
  %50 = load i32, ptr %49, align 4, !tbaa !11
  call void @__kmpc_for_static_init_4(ptr @1, i32 %50, i32 33, ptr %25, ptr %22, ptr %23, ptr %24, i32 1, i32 1)
  br label %51

51:                                               ; preds = %158, %47
  %52 = load i32, ptr %23, align 4, !tbaa !11
  %53 = load i32, ptr %20, align 4, !tbaa !11
  %54 = icmp sgt i32 %52, %53
  br i1 %54, label %55, label %57

55:                                               ; preds = %51
  %56 = load i32, ptr %20, align 4, !tbaa !11
  br label %59

57:                                               ; preds = %51
  %58 = load i32, ptr %23, align 4, !tbaa !11
  br label %59

59:                                               ; preds = %57, %55
  %60 = phi i32 [ %56, %55 ], [ %58, %57 ]
  store i32 %60, ptr %23, align 4, !tbaa !11
  %61 = load i32, ptr %22, align 4, !tbaa !11
  store i32 %61, ptr %18, align 4, !tbaa !11
  %62 = load i32, ptr %18, align 4, !tbaa !11
  %63 = load i32, ptr %23, align 4, !tbaa !11
  %64 = icmp sle i32 %62, %63
  br i1 %64, label %66, label %65

65:                                               ; preds = %59
  br label %165

66:                                               ; preds = %59
  br label %67

67:                                               ; preds = %154, %66
  %68 = load i32, ptr %18, align 4, !tbaa !11
  %69 = load i32, ptr %23, align 4, !tbaa !11
  %70 = icmp sle i32 %68, %69
  br i1 %70, label %72, label %71

71:                                               ; preds = %67
  br label %157

72:                                               ; preds = %67
  %73 = load i32, ptr %18, align 4, !tbaa !11
  %74 = mul nsw i32 %73, 1
  %75 = add nsw i32 0, %74
  store i32 %75, ptr %26, align 4, !tbaa !11
  call void @llvm.lifetime.start.p0(i64 4, ptr %27) #5
  %76 = load i32, ptr %26, align 4, !tbaa !11
  %77 = load i32, ptr %36, align 4, !tbaa !11
  %78 = mul nsw i32 %76, %77
  store i32 %78, ptr %27, align 4, !tbaa !11
  call void @llvm.lifetime.start.p0(i64 4, ptr %28) #5
  %79 = getelementptr inbounds nuw %"class.LightGBM::MultiValDenseBin.129", ptr %37, i32 0, i32 1
  call void @llvm.lifetime.start.p0(i64 4, ptr %29) #5
  %80 = load i32, ptr %27, align 4, !tbaa !11
  %81 = load i32, ptr %36, align 4, !tbaa !11
  %82 = add nsw i32 %80, %81
  store i32 %82, ptr %29, align 4, !tbaa !11
  %83 = call noundef nonnull align 4 dereferenceable(4) ptr @_ZSt3minIiERKT_S2_S2_(ptr noundef nonnull align 4 dereferenceable(4) %79, ptr noundef nonnull align 4 dereferenceable(4) %29)
  %84 = load i32, ptr %83, align 4, !tbaa !11
  call void @llvm.lifetime.end.p0(i64 4, ptr %29) #5
  store i32 %84, ptr %28, align 4, !tbaa !11
  call void @llvm.lifetime.start.p0(i64 4, ptr %30) #5
  %85 = load i32, ptr %27, align 4, !tbaa !11
  store i32 %85, ptr %30, align 4, !tbaa !11
  br label %86

86:                                               ; preds = %149, %72
  %87 = load i32, ptr %30, align 4, !tbaa !11
  %88 = load i32, ptr %28, align 4, !tbaa !11
  %89 = icmp slt i32 %87, %88
  br i1 %89, label %91, label %90

90:                                               ; preds = %86
  store i32 7, ptr %31, align 4
  call void @llvm.lifetime.end.p0(i64 4, ptr %30) #5
  br label %152

91:                                               ; preds = %86
  call void @llvm.lifetime.start.p0(i64 8, ptr %32) #5
  %92 = load i32, ptr %30, align 4, !tbaa !11
  %93 = call noundef i64 @_ZNK8LightGBM16MultiValDenseBinItE6RowPtrEi(ptr noundef nonnull align 8 dereferenceable(72) %37, i32 noundef %92)
  store i64 %93, ptr %32, align 8, !tbaa !37
  call void @llvm.lifetime.start.p0(i64 8, ptr %33) #5
  %94 = load ptr, ptr %38, align 8, !tbaa !201
  %95 = load i32, ptr %30, align 4, !tbaa !11
  %96 = call noundef i64 @_ZNK8LightGBM16MultiValDenseBinItE6RowPtrEi(ptr noundef nonnull align 8 dereferenceable(72) %94, i32 noundef %95)
  store i64 %96, ptr %33, align 8, !tbaa !37
  call void @llvm.lifetime.start.p0(i64 4, ptr %34) #5
  store i32 0, ptr %34, align 4, !tbaa !11
  br label %97

97:                                               ; preds = %145, %91
  %98 = load i32, ptr %34, align 4, !tbaa !11
  %99 = getelementptr inbounds nuw %"class.LightGBM::MultiValDenseBin.129", ptr %37, i32 0, i32 3
  %100 = load i32, ptr %99, align 8, !tbaa !206
  %101 = icmp slt i32 %98, %100
  br i1 %101, label %103, label %102

102:                                              ; preds = %97
  store i32 10, ptr %31, align 4
  call void @llvm.lifetime.end.p0(i64 4, ptr %34) #5
  br label %148

103:                                              ; preds = %97
  %104 = load ptr, ptr %38, align 8, !tbaa !201
  %105 = getelementptr inbounds nuw %"class.LightGBM::MultiValDenseBin.129", ptr %104, i32 0, i32 5
  %106 = load i64, ptr %33, align 8, !tbaa !37
  %107 = load ptr, ptr %17, align 8, !tbaa !21
  %108 = load i32, ptr %34, align 4, !tbaa !11
  %109 = sext i32 %108 to i64
  %110 = call noundef nonnull align 4 dereferenceable(4) ptr @_ZNKSt6vectorIiSaIiEEixEm(ptr noundef nonnull align 8 dereferenceable(24) %107, i64 noundef %109) #5
  %111 = load i32, ptr %110, align 4, !tbaa !11
  %112 = sext i32 %111 to i64
  %113 = add i64 %106, %112
  %114 = call noundef nonnull align 2 dereferenceable(2) ptr @_ZNKSt6vectorItN8LightGBM6Common18AlignmentAllocatorItLm32EEEEixEm(ptr noundef nonnull align 8 dereferenceable(24) %105, i64 noundef %113) #5
  %115 = load i16, ptr %114, align 2, !tbaa !69
  %116 = zext i16 %115 to i32
  %117 = icmp sgt i32 %116, 0
  br i1 %117, label %118, label %137

118:                                              ; preds = %103
  %119 = load ptr, ptr %38, align 8, !tbaa !201
  %120 = getelementptr inbounds nuw %"class.LightGBM::MultiValDenseBin.129", ptr %119, i32 0, i32 5
  %121 = load i64, ptr %33, align 8, !tbaa !37
  %122 = load ptr, ptr %17, align 8, !tbaa !21
  %123 = load i32, ptr %34, align 4, !tbaa !11
  %124 = sext i32 %123 to i64
  %125 = call noundef nonnull align 4 dereferenceable(4) ptr @_ZNKSt6vectorIiSaIiEEixEm(ptr noundef nonnull align 8 dereferenceable(24) %122, i64 noundef %124) #5
  %126 = load i32, ptr %125, align 4, !tbaa !11
  %127 = sext i32 %126 to i64
  %128 = add i64 %121, %127
  %129 = call noundef nonnull align 2 dereferenceable(2) ptr @_ZNKSt6vectorItN8LightGBM6Common18AlignmentAllocatorItLm32EEEEixEm(ptr noundef nonnull align 8 dereferenceable(24) %120, i64 noundef %128) #5
  %130 = load i16, ptr %129, align 2, !tbaa !69
  %131 = getelementptr inbounds nuw %"class.LightGBM::MultiValDenseBin.129", ptr %37, i32 0, i32 5
  %132 = load i64, ptr %32, align 8, !tbaa !37
  %133 = load i32, ptr %34, align 4, !tbaa !11
  %134 = sext i32 %133 to i64
  %135 = add i64 %132, %134
  %136 = call noundef nonnull align 2 dereferenceable(2) ptr @_ZNSt6vectorItN8LightGBM6Common18AlignmentAllocatorItLm32EEEEixEm(ptr noundef nonnull align 8 dereferenceable(24) %131, i64 noundef %135) #5
  store i16 %130, ptr %136, align 2, !tbaa !69
  br label %144

137:                                              ; preds = %103
  %138 = getelementptr inbounds nuw %"class.LightGBM::MultiValDenseBin.129", ptr %37, i32 0, i32 5
  %139 = load i64, ptr %32, align 8, !tbaa !37
  %140 = load i32, ptr %34, align 4, !tbaa !11
  %141 = sext i32 %140 to i64
  %142 = add i64 %139, %141
  %143 = call noundef nonnull align 2 dereferenceable(2) ptr @_ZNSt6vectorItN8LightGBM6Common18AlignmentAllocatorItLm32EEEEixEm(ptr noundef nonnull align 8 dereferenceable(24) %138, i64 noundef %142) #5
  store i16 0, ptr %143, align 2, !tbaa !69
  br label %144

144:                                              ; preds = %137, %118
  br label %145

145:                                              ; preds = %144
  %146 = load i32, ptr %34, align 4, !tbaa !11
  %147 = add nsw i32 %146, 1
  store i32 %147, ptr %34, align 4, !tbaa !11
  br label %97, !llvm.loop !1217

148:                                              ; preds = %102
  call void @llvm.lifetime.end.p0(i64 8, ptr %33) #5
  call void @llvm.lifetime.end.p0(i64 8, ptr %32) #5
  br label %149

149:                                              ; preds = %148
  %150 = load i32, ptr %30, align 4, !tbaa !11
  %151 = add nsw i32 %150, 1
  store i32 %151, ptr %30, align 4, !tbaa !11
  br label %86, !llvm.loop !1218

152:                                              ; preds = %90
  call void @llvm.lifetime.end.p0(i64 4, ptr %28) #5
  call void @llvm.lifetime.end.p0(i64 4, ptr %27) #5
  br label %153

153:                                              ; preds = %152
  br label %154

154:                                              ; preds = %153
  %155 = load i32, ptr %18, align 4, !tbaa !11
  %156 = add nsw i32 %155, 1
  store i32 %156, ptr %18, align 4, !tbaa !11
  br label %67

157:                                              ; preds = %71
  br label %158

158:                                              ; preds = %157
  %159 = load i32, ptr %22, align 4, !tbaa !11
  %160 = load i32, ptr %24, align 4, !tbaa !11
  %161 = add nsw i32 %159, %160
  store i32 %161, ptr %22, align 4, !tbaa !11
  %162 = load i32, ptr %23, align 4, !tbaa !11
  %163 = load i32, ptr %24, align 4, !tbaa !11
  %164 = add nsw i32 %162, %163
  store i32 %164, ptr %23, align 4, !tbaa !11
  br label %51

165:                                              ; preds = %65
  %166 = load ptr, ptr %9, align 8
  %167 = load i32, ptr %166, align 4, !tbaa !11
  call void @__kmpc_for_static_fini(ptr @1, i32 %167)
  call void @llvm.lifetime.end.p0(i64 4, ptr %26) #5
  call void @llvm.lifetime.end.p0(i64 4, ptr %25) #5
  call void @llvm.lifetime.end.p0(i64 4, ptr %24) #5
  call void @llvm.lifetime.end.p0(i64 4, ptr %23) #5
  call void @llvm.lifetime.end.p0(i64 4, ptr %22) #5
  br label %168

168:                                              ; preds = %165, %8
  call void @llvm.lifetime.end.p0(i64 4, ptr %20) #5
  call void @llvm.lifetime.end.p0(i64 4, ptr %19) #5
  call void @llvm.lifetime.end.p0(i64 4, ptr %18) #5
  ret void
}