; Function Attrs: alwaysinline norecurse nounwind uwtable
define internal void @_ZN8LightGBM16MultiValDenseBinItE9CopyInnerILb0ELb1EEEvPKNS_11MultiValBinEPKiiRKSt6vectorIiSaIiEE.omp_outlined(ptr noalias noundef readonly captures(none) %0, ptr noalias readnone captures(none) %1, ptr noundef nonnull readonly align 4 captures(none) dereferenceable(4) %2, ptr noundef nonnull readonly align 4 captures(none) dereferenceable(4) %3, ptr noundef readonly captures(none) %4, ptr noundef nonnull readonly align 8 captures(none) dereferenceable(8) %5, ptr nonnull readnone align 8 captures(none) %6, ptr noundef nonnull readonly align 8 captures(none) dereferenceable(24) %7) #21 {
  %9 = alloca i32, align 4
  %10 = alloca i32, align 4
  %11 = alloca i32, align 4
  %12 = alloca i32, align 4
  %13 = load i32, ptr %2, align 4, !tbaa !10
  %14 = add nsw i32 %13, -1
  %15 = icmp sgt i32 %13, 0
  br i1 %15, label %16, label %63

16:                                               ; preds = %8
  call void @llvm.lifetime.start.p0(i64 4, ptr nonnull %9) #22
  store i32 0, ptr %9, align 4, !tbaa !10
  call void @llvm.lifetime.start.p0(i64 4, ptr nonnull %10) #22
  store i32 %14, ptr %10, align 4, !tbaa !10
  call void @llvm.lifetime.start.p0(i64 4, ptr nonnull %11) #22
  store i32 1, ptr %11, align 4, !tbaa !10
  call void @llvm.lifetime.start.p0(i64 4, ptr nonnull %12) #22
  store i32 0, ptr %12, align 4, !tbaa !10
  %17 = load i32, ptr %0, align 4, !tbaa !10
  call void @__kmpc_for_static_init_4(ptr nonnull @1, i32 %17, i32 33, ptr nonnull %12, ptr nonnull %9, ptr nonnull %10, ptr nonnull %11, i32 1, i32 1)
  %.promoted = load i32, ptr %10, align 4, !tbaa !10
  %.promoted47 = load i32, ptr %9, align 4, !tbaa !10
  %18 = call i32 @llvm.smin.i32(i32 %.promoted, i32 %14)
  store i32 %18, ptr %10, align 4, !tbaa !10
  %.not48 = icmp sgt i32 %.promoted47, %18
  br i1 %.not48, label %._crit_edge, label %.preheader.lr.ph

.preheader.lr.ph:                                 ; preds = %16
  %19 = load i32, ptr %3, align 4, !tbaa !10
  %20 = getelementptr inbounds nuw i8, ptr %4, i64 8
  %21 = load i32, ptr %20, align 4, !tbaa !10
  %22 = getelementptr inbounds nuw i8, ptr %4, i64 16
  %23 = getelementptr inbounds nuw i8, ptr %4, i64 48
  %24 = load i32, ptr %11, align 4, !tbaa !10
  %25 = mul i32 %.promoted47, %19
  %26 = mul i32 %24, %19
  br label %.preheader

.preheader:                                       ; preds = %.preheader.lr.ph, %59
  %indvars.iv51 = phi i32 [ %25, %.preheader.lr.ph ], [ %indvars.iv.next52, %59 ]
  %27 = phi i32 [ %18, %.preheader.lr.ph ], [ %62, %59 ]
  %28 = phi i32 [ %.promoted47, %.preheader.lr.ph ], [ %60, %59 ]
  %29 = load ptr, ptr %5, align 8
  %30 = getelementptr inbounds nuw i8, ptr %29, i64 16
  %31 = getelementptr inbounds nuw i8, ptr %29, i64 48
  br label %32

32:                                               ; preds = %.preheader, %._crit_edge45
  %indvars.iv53 = phi i32 [ %indvars.iv51, %.preheader ], [ %indvars.iv.next54, %._crit_edge45 ]
  %.03546 = phi i32 [ %28, %.preheader ], [ %58, %._crit_edge45 ]
  %33 = sext i32 %indvars.iv53 to i64
  %34 = mul nsw i32 %19, %.03546
  %35 = add nsw i32 %34, %19
  %.sroa.speculated = call i32 @llvm.smin.i32(i32 %35, i32 %21)
  %36 = icmp slt i32 %34, %.sroa.speculated
  br i1 %36, label %.lr.ph44, label %._crit_edge45

.lr.ph44:                                         ; preds = %32
  %37 = load i32, ptr %22, align 8, !tbaa !492
  %38 = sext i32 %37 to i64
  %39 = load i32, ptr %30, align 8, !tbaa !492
  %40 = sext i32 %39 to i64
  %41 = icmp sgt i32 %37, 0
  %42 = load ptr, ptr %7, align 8
  br i1 %41, label %.lr.ph44.split.us, label %._crit_edge45

.lr.ph44.split.us:                                ; preds = %.lr.ph44
  %43 = load ptr, ptr %31, align 8, !tbaa !126
  %44 = sext i32 %.sroa.speculated to i64
  %wide.trip.count = zext nneg i32 %37 to i64
  %45 = load ptr, ptr %23, align 8, !tbaa !126
  br label %.lr.ph.us

.lr.ph.us:                                        ; preds = %._crit_edge.us, %.lr.ph44.split.us
  %indvars.iv55 = phi i64 [ %indvars.iv.next56, %._crit_edge.us ], [ %33, %.lr.ph44.split.us ]
  %46 = mul nsw i64 %indvars.iv55, %38
  %47 = mul nsw i64 %indvars.iv55, %40
  %48 = getelementptr i16, ptr %43, i64 %47
  %49 = getelementptr i16, ptr %45, i64 %46
  br label %50

50:                                               ; preds = %.lr.ph.us, %50
  %indvars.iv = phi i64 [ 0, %.lr.ph.us ], [ %indvars.iv.next, %50 ]
  %51 = getelementptr inbounds nuw i32, ptr %42, i64 %indvars.iv
  %52 = load i32, ptr %51, align 4, !tbaa !10
  %53 = sext i32 %52 to i64
  %54 = getelementptr i16, ptr %48, i64 %53
  %55 = load i16, ptr %54, align 2, !tbaa !50
  %56 = getelementptr i16, ptr %49, i64 %indvars.iv
  store i16 %55, ptr %56, align 2, !tbaa !50
  %indvars.iv.next = add nuw nsw i64 %indvars.iv, 1
  %exitcond.not = icmp eq i64 %indvars.iv.next, %wide.trip.count
  br i1 %exitcond.not, label %._crit_edge.us, label %50, !llvm.loop !899

._crit_edge.us:                                   ; preds = %50
  %indvars.iv.next56 = add nsw i64 %indvars.iv55, 1
  %57 = icmp slt i64 %indvars.iv.next56, %44
  br i1 %57, label %.lr.ph.us, label %._crit_edge45, !llvm.loop !900

._crit_edge45:                                    ; preds = %._crit_edge.us, %.lr.ph44, %32
  %58 = add nsw i32 %.03546, 1
  %.not38.not = icmp slt i32 %.03546, %27
  %indvars.iv.next54 = add i32 %indvars.iv53, %19
  br i1 %.not38.not, label %32, label %59

59:                                               ; preds = %._crit_edge45
  %60 = add nsw i32 %24, %28
  store i32 %60, ptr %9, align 4, !tbaa !10
  %61 = add nsw i32 %24, %27
  %62 = call i32 @llvm.smin.i32(i32 %61, i32 %14)
  store i32 %62, ptr %10, align 4, !tbaa !10
  %.not = icmp sgt i32 %60, %62
  %indvars.iv.next52 = add i32 %indvars.iv51, %26
  br i1 %.not, label %._crit_edge, label %.preheader

._crit_edge:                                      ; preds = %59, %16
  call void @__kmpc_for_static_fini(ptr nonnull @1, i32 %17)
  call void @llvm.lifetime.end.p0(i64 4, ptr nonnull %12) #22
  call void @llvm.lifetime.end.p0(i64 4, ptr nonnull %11) #22
  call void @llvm.lifetime.end.p0(i64 4, ptr nonnull %10) #22
  call void @llvm.lifetime.end.p0(i64 4, ptr nonnull %9) #22
  br label %63

63:                                               ; preds = %._crit_edge, %8
  ret void
}